; Function Attrs: mustprogress uwtable
define dso_local void @_ZN20cmCTestScriptHandler24RestoreBackupDirectoriesEv(ptr noundef nonnull align 8 dereferenceable(824) %0) local_unnamed_addr #3 align 2 {
  %2 = getelementptr inbounds i8, ptr %0, i64 353
  %3 = load i8, ptr %2, align 1
  %4 = and i8 %3, 1
  %.not = icmp eq i8 %4, 0
  br i1 %.not, label %24, label %5

5:                                                ; preds = %1
  %6 = getelementptr inbounds i8, ptr %0, i64 360
  %7 = tail call noundef zeroext i1 @_ZN5cmsys11SystemTools10FileExistsERKNSt7__cxx1112basic_stringIcSt11char_traitsIcESaIcEEE(ptr noundef nonnull align 8 dereferenceable(32) %6)
  br i1 %7, label %8, label %10

8:                                                ; preds = %5
  %9 = tail call i64 @_ZN5cmsys11SystemTools16RemoveADirectoryERKNSt7__cxx1112basic_stringIcSt11char_traitsIcESaIcEEE(ptr noundef nonnull align 8 dereferenceable(32) %6)
  br label %10

10:                                               ; preds = %8, %5
  %11 = getelementptr inbounds i8, ptr %0, i64 392
  %12 = tail call noundef zeroext i1 @_ZN5cmsys11SystemTools10FileExistsERKNSt7__cxx1112basic_stringIcSt11char_traitsIcESaIcEEE(ptr noundef nonnull align 8 dereferenceable(32) %11)
  br i1 %12, label %13, label %15

13:                                               ; preds = %10
  %14 = tail call i64 @_ZN5cmsys11SystemTools16RemoveADirectoryERKNSt7__cxx1112basic_stringIcSt11char_traitsIcESaIcEEE(ptr noundef nonnull align 8 dereferenceable(32) %11)
  br label %15

15:                                               ; preds = %13, %10
  %16 = getelementptr inbounds i8, ptr %0, i64 424
  %17 = tail call noundef ptr @_ZNKSt7__cxx1112basic_stringIcSt11char_traitsIcESaIcEE5c_strEv(ptr noundef nonnull align 8 dereferenceable(32) %16) #20
  %18 = tail call noundef ptr @_ZNKSt7__cxx1112basic_stringIcSt11char_traitsIcESaIcEE5c_strEv(ptr noundef nonnull align 8 dereferenceable(32) %6) #20
  %19 = tail call i32 @rename(ptr noundef %17, ptr noundef %18) #20
  %20 = getelementptr inbounds i8, ptr %0, i64 456
  %21 = tail call noundef ptr @_ZNKSt7__cxx1112basic_stringIcSt11char_traitsIcESaIcEE5c_strEv(ptr noundef nonnull align 8 dereferenceable(32) %20) #20
  %22 = tail call noundef ptr @_ZNKSt7__cxx1112basic_stringIcSt11char_traitsIcESaIcEE5c_strEv(ptr noundef nonnull align 8 dereferenceable(32) %11) #20
  %23 = tail call i32 @rename(ptr noundef %21, ptr noundef %22) #20
  br label %24

24:                                               ; preds = %15, %1
  ret void
}